; Function Attrs: nounwind uwtable
define internal ptr @v2i_TLS_FEATURE(ptr readnone captures(none) %0, ptr readnone captures(none) %1, ptr noundef %2) #0 {
  %4 = alloca ptr, align 8
  call void @llvm.lifetime.start.p0(i64 8, ptr nonnull %4) #5
  %5 = tail call ptr @OPENSSL_sk_new_null() #5
  %6 = icmp eq ptr %5, null
  br i1 %6, label %9, label %.preheader

.preheader:                                       ; preds = %3
  %7 = tail call i32 @OPENSSL_sk_num(ptr noundef %2) #5
  %8 = icmp sgt i32 %7, 0
  br i1 %8, label %.lr.ph, label %.loopexit

9:                                                ; preds = %3
  tail call void @ERR_new() #5
  tail call void @ERR_set_debug(ptr noundef nonnull @.str.3, i32 noundef 99, ptr noundef nonnull @__func__.v2i_TLS_FEATURE) #5
  tail call void (i32, i32, ptr, ...) @ERR_set_error(i32 noundef 34, i32 noundef 524303, ptr noundef null) #5
  br label %.loopexit

10:                                               ; preds = %47
  %11 = add nuw nsw i32 %.03148, 1
  %12 = tail call i32 @OPENSSL_sk_num(ptr noundef %2) #5
  %13 = icmp slt i32 %11, %12
  br i1 %13, label %.lr.ph, label %.loopexit, !llvm.loop !16

.lr.ph:                                           ; preds = %.preheader, %10
  %.03148 = phi i32 [ %11, %10 ], [ 0, %.preheader ]
  %14 = tail call ptr @OPENSSL_sk_value(ptr noundef %2, i32 noundef %.03148) #5
  %15 = getelementptr inbounds nuw i8, ptr %14, i64 16
  %16 = load ptr, ptr %15, align 8, !tbaa !17
  %.not = icmp eq ptr %16, null
  br i1 %.not, label %17, label %20

17:                                               ; preds = %.lr.ph
  %18 = getelementptr inbounds nuw i8, ptr %14, i64 8
  %19 = load ptr, ptr %18, align 8, !tbaa !19
  br label %20

20:                                               ; preds = %.lr.ph, %17
  %.034 = phi ptr [ %19, %17 ], [ %16, %.lr.ph ]
  br label %21

21:                                               ; preds = %20, %27
  %22 = phi i1 [ true, %20 ], [ false, %27 ]
  %.03046 = phi i64 [ 0, %20 ], [ 1, %27 ]
  %23 = getelementptr inbounds nuw [2 x %struct.TLS_FEATURE_NAME], ptr @tls_feature_tbl, i64 0, i64 %.03046, i32 1
  %24 = load ptr, ptr %23, align 8, !tbaa !14
  %25 = tail call i32 @OPENSSL_strcasecmp(ptr noundef %.034, ptr noundef %24) #5
  %26 = icmp eq i32 %25, 0
  br i1 %26, label %28, label %27

27:                                               ; preds = %21
  br i1 %22, label %21, label %.critedge, !llvm.loop !20

28:                                               ; preds = %21
  %29 = getelementptr inbounds nuw [2 x %struct.TLS_FEATURE_NAME], ptr @tls_feature_tbl, i64 0, i64 %.03046
  %30 = load i64, ptr %29, align 16, !tbaa !8
  br label %42

.critedge:                                        ; preds = %27
  %31 = call i64 @strtol(ptr noundef %.034, ptr noundef nonnull %4, i32 noundef 10) #5
  %32 = load ptr, ptr %4, align 8, !tbaa !21
  %33 = load i8, ptr %32, align 1, !tbaa !22
  %.not39 = icmp eq i8 %33, 0
  br i1 %.not39, label %34, label %37

34:                                               ; preds = %.critedge
  %35 = icmp eq ptr %.034, %32
  %36 = icmp ugt i64 %31, 65535
  %or.cond3 = select i1 %35, i1 true, i1 %36
  br i1 %or.cond3, label %37, label %42

37:                                               ; preds = %34, %.critedge
  %38 = getelementptr inbounds nuw i8, ptr %14, i64 16
  tail call void @ERR_new() #5
  tail call void @ERR_set_debug(ptr noundef nonnull @.str.3, i32 noundef 119, ptr noundef nonnull @__func__.v2i_TLS_FEATURE) #5
  tail call void (i32, i32, ptr, ...) @ERR_set_error(i32 noundef 34, i32 noundef 143, ptr noundef null) #5
  %39 = getelementptr inbounds nuw i8, ptr %14, i64 8
  %40 = load ptr, ptr %39, align 8, !tbaa !19
  %41 = load ptr, ptr %38, align 8, !tbaa !17
  tail call void (i32, ...) @ERR_add_error_data(i32 noundef 4, ptr noundef nonnull @.str.4, ptr noundef %40, ptr noundef nonnull @.str.5, ptr noundef %41) #5
  br label %51

42:                                               ; preds = %34, %28
  %.0 = phi i64 [ %30, %28 ], [ %31, %34 ]
  %43 = tail call ptr @ASN1_INTEGER_new() #5
  %44 = icmp eq ptr %43, null
  br i1 %44, label %50, label %45

45:                                               ; preds = %42
  %46 = tail call i32 @ASN1_INTEGER_set(ptr noundef nonnull %43, i64 noundef %.0) #5
  %.not40 = icmp eq i32 %46, 0
  br i1 %.not40, label %50, label %47

47:                                               ; preds = %45
  %48 = tail call i32 @OPENSSL_sk_push(ptr noundef nonnull %5, ptr noundef nonnull %43) #5
  %49 = icmp slt i32 %48, 1
  br i1 %49, label %50, label %10

50:                                               ; preds = %47, %45, %42
  tail call void @ERR_new() #5
  tail call void @ERR_set_debug(ptr noundef nonnull @.str.3, i32 noundef 128, ptr noundef nonnull @__func__.v2i_TLS_FEATURE) #5
  tail call void (i32, i32, ptr, ...) @ERR_set_error(i32 noundef 34, i32 noundef 524301, ptr noundef null) #5
  br label %51

51:                                               ; preds = %50, %37
  %.1 = phi ptr [ %43, %50 ], [ null, %37 ]
  tail call void @OPENSSL_sk_pop_free(ptr noundef nonnull %5, ptr noundef nonnull @ASN1_INTEGER_free) #5
  tail call void @ASN1_INTEGER_free(ptr noundef %.1) #5
  br label %.loopexit

.loopexit:                                        ; preds = %10, %.preheader, %51, %9
  %.032 = phi ptr [ null, %9 ], [ null, %51 ], [ %5, %.preheader ], [ %5, %10 ]
  call void @llvm.lifetime.end.p0(i64 8, ptr nonnull %4) #5
  ret ptr %.032
}